; Function Attrs: mustprogress uwtable
define hidden void @_ZN2cv9BitStream10writeBlockEv(ptr noundef nonnull align 8 dereferenceable(569) %0) local_unnamed_addr #4 align 2 {
  %2 = getelementptr inbounds nuw i8, ptr %0, i64 552
  %3 = load ptr, ptr %2, align 8, !tbaa !133
  %4 = getelementptr inbounds nuw i8, ptr %0, i64 536
  %5 = load ptr, ptr %4, align 8, !tbaa !123
  %6 = ptrtoint ptr %3 to i64
  %7 = ptrtoint ptr %5 to i64
  %8 = sub i64 %6, %7
  %9 = icmp sgt i64 %8, 0
  br i1 %9, label %10, label %12

10:                                               ; preds = %1
  %11 = tail call noundef nonnull align 8 dereferenceable(8) ptr @_ZNSo5writeEPKcl(ptr noundef nonnull align 8 dereferenceable(8) %0, ptr noundef %5, i64 noundef %8)
  %.pre = load ptr, ptr %4, align 8, !tbaa !123
  br label %12

12:                                               ; preds = %10, %1
  %13 = phi ptr [ %.pre, %10 ], [ %5, %1 ]
  %14 = getelementptr inbounds nuw i8, ptr %0, i64 560
  %15 = load i64, ptr %14, align 8, !tbaa !134
  %16 = add i64 %15, %8
  store i64 %16, ptr %14, align 8, !tbaa !134
  store ptr %13, ptr %2, align 8, !tbaa !133
  ret void
}